(dp0
.(dp0
.(dp0
.(dp0
S'box_wp_right'
p1
(lp2
F-0.46216123108742774
aF0.06579585980141321
aF-2.3225299943453033
aF-1.9953479218374208
aF10.842483709437628
aF-0.5757119095848258
aF18.505494220388595
asS'drop_wp_right_bin_I'
p3
(lp4
F-0.2938607978527465
aF0.2833740020260706
aF0.13298346185676424
aF-0.9233208040423982
aF10.313645640535604
aF-0.9559798712552827
aF18.360870569977543
as.