(dp0
S'initial'
p1
(lp2
F-0.08137306093583915
aF1.0647904700567006
as.(dp0
S'grasped_up'
p1
(lp2
F0.5850855733927594
aF-0.27788556443116585
aF1.7146000212928698
aF-1.4974814453894694
aF-12.688589707041784
aF-0.2910340275027251
aF-4.7898094594253635
aF-0.12456548520978183
aF-0.1555044590398402
aF-1.708210654522269
aF-0.6032327611734182
aF-25.356892821223273
aF-0.4333038672588472
aF-0.13176566297315584
asS'above_pringles_closer'
p3
(lp4
F0.14576340801809162
aF-0.3480993506078633
aF1.8661353322124123
aF-1.4051177315267784
aF-12.868841229979731
aF-0.3021723110482213
aF1.4944449240796538
aF-0.606418745288583
aF-0.051452703621361
aF-1.708371009348639
aF-1.0191590149782934
aF-25.420987393564488
aF-0.2126701334338037
aF-6.469231455759976
asS'above_pringles'
p5
(lp6
F0.14576340801809162
aF-0.3480993506078633
aF1.8659749773860426
aF-1.4051177315267784
aF-12.86889907706668
aF-0.30225932888842066
aF-4.788765245342972
aF-0.7388206132076893
aF-0.0957804433280953
aF-1.4595003188225755
aF-1.0627349991047352
aF-25.8342469827393
aF-0.4309543855734691
aF-0.26812261856528474
asS'monitor_close'
p7
(lp8
F0.5903915969036064
aF0.23408291019699382
aF1.7816283387154823
aF-1.082423815852895
aF-12.291295913865335
aF-0.2874227871344587
aF-4.790897182427852
aF0.13153305580594732
aF0.15301322552210592
aF-2.457067693669638
aF-0.22292010236889093
aF-25.05146020212431
aF-0.20766660762235073
aF-0.5948746085132388
as.(dp0
S'left_above'
p1
(lp2
F0.04370536205164244
aF-0.3421777059905514
aF2.2663809788316485
aF-0.8969725345705961
aF-11.718031282185278
aF-1.2413993692381653
aF3.1772394267716666
asS'post_release1'
p3
(lp4
F0.5355074162132819
aF-0.352329096763086
aF1.6177457061654588
aF-1.6529651894153778
aF-12.829273822505547
aF-0.3022158199683208
aF1.4944884329997534
asS'post_release0'
p5
(lp6
F0.17701920276167538
aF-0.3530058561479216
aF1.7809869194100028
aF-1.402511858721875
aF-12.840438310287004
aF-0.3022158199683208
aF1.4944884329997534
asS'left_up'
p7
(lp8
F0.30602189936914537
aF0.013459350740576031
aF1.3024881175222622
aF-0.6971889528613278
aF-12.114052439448816
aF-0.2861610284515701
aF1.4925305315952722
asS'initial'
p9
(lp10
F0.3014620354145112
aF0.38136267132184937
aF1.384589788623644
aF-0.7005186792231489
aF-12.118506665144011
aF-0.2859869927711718
aF1.4922694780746744
asS'grasped_up'
p11
(lp12
F0.3172142927123385
aF-0.2740787928914654
aF1.566271806900725
aF-1.219811220955863
aF-12.749560536687675
aF-0.28724875145406004
aF1.492138951314376
asS'release'
p13
(lp14
F0.14294458302795432
aF-0.3172222036747373
aF1.876879105579195
aF-1.4098951650024347
aF-12.778657621423807
aF-0.3022158199683208
aF1.4944884329997534
asS'above'
p15
(lp16
F0.14568050140073496
aF-0.3480147556847588
aF1.8658146225596728
aF-1.404972960815395
aF-12.868956924153633
aF-0.3022158199683208
aF1.4944884329997534
asS'grasp'
p17
(lp18
F0.48626088550323243
aF0.2538781222034362
aF1.8164253360377476
aF-1.2199559916672464
aF-12.299278811864509
aF-0.2871617336138612
aF1.492138951314376
asS'approach'
p19
(lp20
F0.6391406879095141
aF0.22900721481072653
aF1.7994277244425394
aF-1.3693593658150471
aF-12.287246617778795
aF-0.2871617336138612
aF1.492138951314376
asS'pre_approach'
p21
(lp22
F0.5903915969036064
aF0.23399831527388934
aF1.7816283387154823
aF-1.082423815852895
aF-12.291180219691434
aF-0.2873357692942594
aF-4.790984200268051
asS'above_pringles_closer'
p23
(lp24
F0.14576340801809162
aF-0.3480993506078633
aF1.8662956870387821
aF-1.4051177315267784
aF-12.868956924153633
aF-0.30230283780851985
aF-4.788721736422874
as.(dp0
S'initial_closer'
p1
(lp2
F-0.6065845585232971
aF-0.051452703621361
aF-1.708210654522269
aF-1.019303785689677
aF-25.42110308773839
aF-0.2126266245137045
aF-6.469274964680076
asS'monitor'
p3
(lp4
F0.15482981528326012
aF-0.0796228130151444
aF-2.4926664651237527
aF-0.40663413511458757
aF-25.60864334363211
aF-0.3676489068285589
aF-6.555379117557173
asS'initial'
p5
(lp6
F-0.7388206132076893
aF-0.09569584840499076
aF-1.4595003188225755
aF-1.0627349991047352
aF-25.834189135652345
aF-0.430954385573469
aF-6.551419805828111
asS'up'
p7
(lp8
F0.1408185969499296
aF-0.3272321529418831
aF-2.4928268199501225
aF-0.3924466053990019
aF-25.68621628723281
aF-0.6274406687432372
aF-6.561861946652012
asS'monitor_closer'
p9
(lp10
F0.13145014918859022
aF0.1529286305990015
aF-2.457067693669638
aF-0.22306487308027434
aF-25.05146020212431
aF-0.20762309870225115
aF-0.5950051352735373
asS'above_pringles_closer'
p11
(lp12
F-0.606418745288583
aF-0.05136810869825658
aF-1.708371009348639
aF-1.0190142442669101
aF-25.421045240651445
aF-0.2126266245137045
aF-6.469274964680076
asS'grasp'
p13
(lp14
F-0.7732268594108386
aF-0.017022569917847938
aF0.43220556786297193
aF-0.38578715267535957
aF-28.620336231539145
aF-2.002888159851715
aF-6.505169823762241
as.